target datalayout = "e-m:e-p270:32:32-p271:32:32-p272:64:64-i64:64-i128:128-f80:128-n8:16:32:64-S128"
target triple = "x86_64-pc-linux-gnu"

%struct.MpegTSContext = type { ptr, ptr, i32, i64, i32, i32, i32, i64, i64, i32, ptr, i64, i32, i32, i32, i32, i32, i32, i32, i32, i32, ptr, [8192 x i8], [8192 x ptr], i32, ptr, [32 x ptr] }
%struct.MpegTSFilter = type { i32, i32, i32, i64, i32, i32, %union.anon.0 }
%union.anon.0 = type { %struct.MpegTSSectionFilter }
%struct.MpegTSSectionFilter = type { i32, i32, i32, i32, i32, ptr, i8, ptr, ptr }

@.str.14 = private unnamed_addr constant [26 x i8] c"Filter: pid=0x%x type=%d\0A\00", align 1

; Function Attrs: nounwind uwtable
define internal ptr @mpegts_open_filter(ptr noundef %0, i32 noundef %1, i32 noundef %2) #0 {
  %4 = alloca ptr, align 8
  %5 = alloca ptr, align 8
  %6 = alloca i32, align 4
  %7 = alloca i32, align 4
  %8 = alloca ptr, align 8
  %9 = alloca i32, align 4
  store ptr %0, ptr %5, align 8, !tbaa !20
  store i32 %1, ptr %6, align 4, !tbaa !11
  store i32 %2, ptr %7, align 4, !tbaa !11
  call void @llvm.lifetime.start.p0(i64 8, ptr %8) #12
  %10 = load ptr, ptr %5, align 8, !tbaa !20
  %11 = getelementptr inbounds nuw %struct.MpegTSContext, ptr %10, i32 0, i32 1
  %12 = load ptr, ptr %11, align 8, !tbaa !72
  %13 = load i32, ptr %6, align 4, !tbaa !11
  %14 = load i32, ptr %7, align 4, !tbaa !11
  call void (ptr, i32, ptr, ...) @av_log(ptr noundef %12, i32 noundef 56, ptr noundef @.str.14, i32 noundef %13, i32 noundef %14)
  %15 = load i32, ptr %6, align 4, !tbaa !11
  %16 = icmp uge i32 %15, 8192
  br i1 %16, label %25, label %17

17:                                               ; preds = %3
  %18 = load ptr, ptr %5, align 8, !tbaa !20
  %19 = getelementptr inbounds nuw %struct.MpegTSContext, ptr %18, i32 0, i32 23
  %20 = load i32, ptr %6, align 4, !tbaa !11
  %21 = zext i32 %20 to i64
  %22 = getelementptr inbounds nuw [8192 x ptr], ptr %19, i64 0, i64 %21
  %23 = load ptr, ptr %22, align 8, !tbaa !50
  %24 = icmp ne ptr %23, null
  br i1 %24, label %25, label %26

25:                                               ; preds = %17, %3
  store ptr null, ptr %4, align 8
  store i32 1, ptr %9, align 4
  br label %51

26:                                               ; preds = %17
  %27 = call noalias ptr @av_mallocz(i64 noundef 88)
  store ptr %27, ptr %8, align 8, !tbaa !50
  %28 = load ptr, ptr %8, align 8, !tbaa !50
  %29 = icmp ne ptr %28, null
  br i1 %29, label %31, label %30

30:                                               ; preds = %26
  store ptr null, ptr %4, align 8
  store i32 1, ptr %9, align 4
  br label %51

31:                                               ; preds = %26
  %32 = load ptr, ptr %8, align 8, !tbaa !50
  %33 = load ptr, ptr %5, align 8, !tbaa !20
  %34 = getelementptr inbounds nuw %struct.MpegTSContext, ptr %33, i32 0, i32 23
  %35 = load i32, ptr %6, align 4, !tbaa !11
  %36 = zext i32 %35 to i64
  %37 = getelementptr inbounds nuw [8192 x ptr], ptr %34, i64 0, i64 %36
  store ptr %32, ptr %37, align 8, !tbaa !50
  %38 = load i32, ptr %7, align 4, !tbaa !11
  %39 = load ptr, ptr %8, align 8, !tbaa !50
  %40 = getelementptr inbounds nuw %struct.MpegTSFilter, ptr %39, i32 0, i32 5
  store i32 %38, ptr %40, align 4, !tbaa !109
  %41 = load i32, ptr %6, align 4, !tbaa !11
  %42 = load ptr, ptr %8, align 8, !tbaa !50
  %43 = getelementptr inbounds nuw %struct.MpegTSFilter, ptr %42, i32 0, i32 0
  store i32 %41, ptr %43, align 8, !tbaa !134
  %44 = load ptr, ptr %8, align 8, !tbaa !50
  %45 = getelementptr inbounds nuw %struct.MpegTSFilter, ptr %44, i32 0, i32 1
  store i32 -1, ptr %45, align 4, !tbaa !52
  %46 = load ptr, ptr %8, align 8, !tbaa !50
  %47 = getelementptr inbounds nuw %struct.MpegTSFilter, ptr %46, i32 0, i32 2
  store i32 -1, ptr %47, align 8, !tbaa !166
  %48 = load ptr, ptr %8, align 8, !tbaa !50
  %49 = getelementptr inbounds nuw %struct.MpegTSFilter, ptr %48, i32 0, i32 3
  store i64 -1, ptr %49, align 8, !tbaa !168
  %50 = load ptr, ptr %8, align 8, !tbaa !50
  store ptr %50, ptr %4, align 8
  store i32 1, ptr %9, align 4
  br label %51

51:                                               ; preds = %31, %30, %25
  call void @llvm.lifetime.end.p0(i64 8, ptr %8) #12
  %52 = load ptr, ptr %4, align 8
  ret ptr %52
}

; Function Attrs: nounwind uwtable
define internal ptr @mpegts_open_section_filter(ptr noundef %0, i32 noundef %1, ptr noundef %2, ptr noundef %3, i32 noundef %4) #0 {
  %6 = alloca ptr, align 8
  %7 = alloca ptr, align 8
  %8 = alloca i32, align 4
  %9 = alloca ptr, align 8
  %10 = alloca ptr, align 8
  %11 = alloca i32, align 4
  %12 = alloca ptr, align 8
  %13 = alloca ptr, align 8
  %14 = alloca ptr, align 8
  %15 = alloca i32, align 4
  store ptr %0, ptr %7, align 8, !tbaa !20
  store i32 %1, ptr %8, align 4, !tbaa !11
  store ptr %2, ptr %9, align 8, !tbaa !98
  store ptr %3, ptr %10, align 8, !tbaa !98
  store i32 %4, ptr %11, align 4, !tbaa !11
  call void @llvm.lifetime.start.p0(i64 8, ptr %12) #12
  call void @llvm.lifetime.start.p0(i64 8, ptr %13) #12
  call void @llvm.lifetime.start.p0(i64 8, ptr %14) #12
  %16 = call noalias ptr @av_mallocz(i64 noundef 4096)
  store ptr %16, ptr %14, align 8, !tbaa !16
  %17 = load ptr, ptr %14, align 8, !tbaa !16
  %18 = icmp ne ptr %17, null
  br i1 %18, label %20, label %19

19:                                               ; preds = %5
  store ptr null, ptr %6, align 8
  store i32 1, ptr %15, align 4
  br label %50

20:                                               ; preds = %5
  %21 = load ptr, ptr %7, align 8, !tbaa !20
  %22 = load i32, ptr %8, align 4, !tbaa !11
  %23 = call ptr @mpegts_open_filter(ptr noundef %21, i32 noundef %22, i32 noundef 1)
  store ptr %23, ptr %12, align 8, !tbaa !50
  %24 = icmp ne ptr %23, null
  br i1 %24, label %27, label %25

25:                                               ; preds = %20
  %26 = load ptr, ptr %14, align 8, !tbaa !16
  call void @av_free(ptr noundef %26)
  store ptr null, ptr %6, align 8
  store i32 1, ptr %15, align 4
  br label %50

27:                                               ; preds = %20
  %28 = load ptr, ptr %12, align 8, !tbaa !50
  %29 = getelementptr inbounds nuw %struct.MpegTSFilter, ptr %28, i32 0, i32 6
  store ptr %29, ptr %13, align 8, !tbaa !99
  %30 = load ptr, ptr %9, align 8, !tbaa !98
  %31 = load ptr, ptr %13, align 8, !tbaa !99
  %32 = getelementptr inbounds nuw %struct.MpegTSSectionFilter, ptr %31, i32 0, i32 7
  store ptr %30, ptr %32, align 8, !tbaa !101
  %33 = load ptr, ptr %10, align 8, !tbaa !98
  %34 = load ptr, ptr %13, align 8, !tbaa !99
  %35 = getelementptr inbounds nuw %struct.MpegTSSectionFilter, ptr %34, i32 0, i32 8
  store ptr %33, ptr %35, align 8, !tbaa !103
  %36 = load ptr, ptr %14, align 8, !tbaa !16
  %37 = load ptr, ptr %13, align 8, !tbaa !99
  %38 = getelementptr inbounds nuw %struct.MpegTSSectionFilter, ptr %37, i32 0, i32 5
  store ptr %36, ptr %38, align 8, !tbaa !104
  %39 = load i32, ptr %11, align 4, !tbaa !11
  %40 = load ptr, ptr %13, align 8, !tbaa !99
  %41 = getelementptr inbounds nuw %struct.MpegTSSectionFilter, ptr %40, i32 0, i32 6
  %42 = trunc i32 %39 to i8
  %43 = load i8, ptr %41, align 8
  %44 = and i8 %42, 1
  %45 = and i8 %43, -2
  %46 = or i8 %45, %44
  store i8 %46, ptr %41, align 8
  %47 = load ptr, ptr %13, align 8, !tbaa !99
  %48 = getelementptr inbounds nuw %struct.MpegTSSectionFilter, ptr %47, i32 0, i32 2
  store i32 -1, ptr %48, align 8, !tbaa !105
  %49 = load ptr, ptr %12, align 8, !tbaa !50
  store ptr %49, ptr %6, align 8
  store i32 1, ptr %15, align 4
  br label %50

50:                                               ; preds = %27, %25, %19
  call void @llvm.lifetime.end.p0(i64 8, ptr %14) #12
  call void @llvm.lifetime.end.p0(i64 8, ptr %13) #12
  call void @llvm.lifetime.end.p0(i64 8, ptr %12) #12
  %51 = load ptr, ptr %6, align 8
  ret ptr %51
}

; Function Attrs: nounwind uwtable
define ptr @avpriv_mpegts_parse_open(ptr noundef %0) #0 {
  %2 = alloca ptr, align 8
  %3 = alloca ptr, align 8
  %4 = alloca ptr, align 8
  %5 = alloca i32, align 4
  store ptr %0, ptr %3, align 8, !tbaa !4
  call void @llvm.lifetime.start.p0(i64 8, ptr %4) #12
  %6 = call noalias ptr @av_mallocz(i64 noundef 74136)
  store ptr %6, ptr %4, align 8, !tbaa !20
  %7 = load ptr, ptr %4, align 8, !tbaa !20
  %8 = icmp ne ptr %7, null
  br i1 %8, label %10, label %9

9:                                                ; preds = %1
  store ptr null, ptr %2, align 8
  store i32 1, ptr %5, align 4
  br label %30

10:                                               ; preds = %1
  %11 = load ptr, ptr %4, align 8, !tbaa !20
  %12 = getelementptr inbounds nuw %struct.MpegTSContext, ptr %11, i32 0, i32 2
  store i32 188, ptr %12, align 8, !tbaa !118
  %13 = load ptr, ptr %4, align 8, !tbaa !20
  %14 = getelementptr inbounds nuw %struct.MpegTSContext, ptr %13, i32 0, i32 18
  store i32 2048000, ptr %14, align 8, !tbaa !119
  %15 = load ptr, ptr %3, align 8, !tbaa !4
  %16 = load ptr, ptr %4, align 8, !tbaa !20
  %17 = getelementptr inbounds nuw %struct.MpegTSContext, ptr %16, i32 0, i32 1
  store ptr %15, ptr %17, align 8, !tbaa !72
  %18 = load ptr, ptr %4, align 8, !tbaa !20
  %19 = getelementptr inbounds nuw %struct.MpegTSContext, ptr %18, i32 0, i32 4
  store i32 1, ptr %19, align 8, !tbaa !120
  %20 = load ptr, ptr %4, align 8, !tbaa !20
  %21 = load ptr, ptr %4, align 8, !tbaa !20
  %22 = call ptr @mpegts_open_section_filter(ptr noundef %20, i32 noundef 17, ptr noundef @sdt_cb, ptr noundef %21, i32 noundef 1)
  %23 = load ptr, ptr %4, align 8, !tbaa !20
  %24 = load ptr, ptr %4, align 8, !tbaa !20
  %25 = call ptr @mpegts_open_section_filter(ptr noundef %23, i32 noundef 0, ptr noundef @pat_cb, ptr noundef %24, i32 noundef 1)
  %26 = load ptr, ptr %4, align 8, !tbaa !20
  %27 = load ptr, ptr %4, align 8, !tbaa !20
  %28 = call ptr @mpegts_open_section_filter(ptr noundef %26, i32 noundef 18, ptr noundef @eit_cb, ptr noundef %27, i32 noundef 1)
  %29 = load ptr, ptr %4, align 8, !tbaa !20
  store ptr %29, ptr %2, align 8
  store i32 1, ptr %5, align 4
  br label %30

30:                                               ; preds = %10, %9
  call void @llvm.lifetime.end.p0(i64 8, ptr %4) #12
  %31 = load ptr, ptr %2, align 8
  ret ptr %31
}