; Function Attrs: nounwind uwtable
define ptr @avpriv_mpegts_parse_open(ptr noundef %0) local_unnamed_addr #0 {
  %2 = tail call noalias ptr @av_mallocz(i64 noundef 74136) #12
  %.not = icmp eq ptr %2, null
  br i1 %.not, label %mpegts_open_section_filter.exit24, label %3

3:                                                ; preds = %1
  %4 = getelementptr inbounds nuw i8, ptr %2, i64 16
  store i32 188, ptr %4, align 8, !tbaa !111
  %5 = getelementptr inbounds nuw i8, ptr %2, i64 112
  store i32 2048000, ptr %5, align 8, !tbaa !112
  %6 = getelementptr inbounds nuw i8, ptr %2, i64 8
  store ptr %0, ptr %6, align 8, !tbaa !57
  %7 = getelementptr inbounds nuw i8, ptr %2, i64 32
  store i32 1, ptr %7, align 8, !tbaa !113
  %8 = tail call noalias ptr @av_mallocz(i64 noundef 4096) #12
  %.not.i = icmp eq ptr %8, null
  br i1 %.not.i, label %mpegts_open_section_filter.exit, label %9

9:                                                ; preds = %3
  tail call void (ptr, i32, ptr, ...) @av_log(ptr noundef %0, i32 noundef 56, ptr noundef nonnull @.str.14, i32 noundef 17, i32 noundef 1) #12
  %10 = getelementptr inbounds nuw i8, ptr %2, i64 8464
  %11 = load ptr, ptr %10, align 8, !tbaa !46
  %.not.i.i = icmp eq ptr %11, null
  br i1 %.not.i.i, label %12, label %14

12:                                               ; preds = %9
  %13 = tail call noalias ptr @av_mallocz(i64 noundef 88) #12
  %.not20.i.i = icmp eq ptr %13, null
  br i1 %.not20.i.i, label %14, label %15

14:                                               ; preds = %12, %9
  tail call void @av_free(ptr noundef nonnull %8) #12
  br label %mpegts_open_section_filter.exit

15:                                               ; preds = %12
  store ptr %13, ptr %10, align 8, !tbaa !46
  %16 = getelementptr inbounds nuw i8, ptr %13, i64 28
  store i32 1, ptr %16, align 4, !tbaa !62
  store i32 17, ptr %13, align 8, !tbaa !63
  %17 = getelementptr inbounds nuw i8, ptr %13, i64 4
  store i32 -1, ptr %17, align 4, !tbaa !48
  %18 = getelementptr inbounds nuw i8, ptr %13, i64 8
  store i32 -1, ptr %18, align 8, !tbaa !64
  %19 = getelementptr inbounds nuw i8, ptr %13, i64 16
  store i64 -1, ptr %19, align 8, !tbaa !65
  %20 = getelementptr inbounds nuw i8, ptr %13, i64 72
  store ptr @sdt_cb, ptr %20, align 8, !tbaa !66
  %21 = getelementptr inbounds nuw i8, ptr %13, i64 80
  store ptr %2, ptr %21, align 8, !tbaa !68
  %22 = getelementptr inbounds nuw i8, ptr %13, i64 56
  store ptr %8, ptr %22, align 8, !tbaa !69
  %23 = getelementptr inbounds nuw i8, ptr %13, i64 64
  %24 = load i8, ptr %23, align 8
  %25 = or i8 %24, 1
  store i8 %25, ptr %23, align 8
  %26 = getelementptr inbounds nuw i8, ptr %13, i64 40
  store i32 -1, ptr %26, align 8, !tbaa !70
  br label %mpegts_open_section_filter.exit

mpegts_open_section_filter.exit:                  ; preds = %3, %14, %15
  %27 = tail call noalias ptr @av_mallocz(i64 noundef 4096) #12
  %.not.i15 = icmp eq ptr %27, null
  br i1 %.not.i15, label %mpegts_open_section_filter.exit19, label %28

28:                                               ; preds = %mpegts_open_section_filter.exit
  %29 = load ptr, ptr %6, align 8, !tbaa !57
  tail call void (ptr, i32, ptr, ...) @av_log(ptr noundef %29, i32 noundef 56, ptr noundef nonnull @.str.14, i32 noundef 0, i32 noundef 1) #12
  %30 = getelementptr inbounds nuw i8, ptr %2, i64 8328
  %31 = load ptr, ptr %30, align 8, !tbaa !46
  %.not.i.i16 = icmp eq ptr %31, null
  br i1 %.not.i.i16, label %32, label %34

32:                                               ; preds = %28
  %33 = tail call noalias ptr @av_mallocz(i64 noundef 88) #12
  %.not20.i.i18 = icmp eq ptr %33, null
  br i1 %.not20.i.i18, label %34, label %35

34:                                               ; preds = %32, %28
  tail call void @av_free(ptr noundef nonnull %27) #12
  br label %mpegts_open_section_filter.exit19

35:                                               ; preds = %32
  store ptr %33, ptr %30, align 8, !tbaa !46
  %36 = getelementptr inbounds nuw i8, ptr %33, i64 28
  store i32 1, ptr %36, align 4, !tbaa !62
  store i32 0, ptr %33, align 8, !tbaa !63
  %37 = getelementptr inbounds nuw i8, ptr %33, i64 4
  store i32 -1, ptr %37, align 4, !tbaa !48
  %38 = getelementptr inbounds nuw i8, ptr %33, i64 8
  store i32 -1, ptr %38, align 8, !tbaa !64
  %39 = getelementptr inbounds nuw i8, ptr %33, i64 16
  store i64 -1, ptr %39, align 8, !tbaa !65
  %40 = getelementptr inbounds nuw i8, ptr %33, i64 72
  store ptr @pat_cb, ptr %40, align 8, !tbaa !66
  %41 = getelementptr inbounds nuw i8, ptr %33, i64 80
  store ptr %2, ptr %41, align 8, !tbaa !68
  %42 = getelementptr inbounds nuw i8, ptr %33, i64 56
  store ptr %27, ptr %42, align 8, !tbaa !69
  %43 = getelementptr inbounds nuw i8, ptr %33, i64 64
  %44 = load i8, ptr %43, align 8
  %45 = or i8 %44, 1
  store i8 %45, ptr %43, align 8
  %46 = getelementptr inbounds nuw i8, ptr %33, i64 40
  store i32 -1, ptr %46, align 8, !tbaa !70
  br label %mpegts_open_section_filter.exit19

mpegts_open_section_filter.exit19:                ; preds = %mpegts_open_section_filter.exit, %34, %35
  %47 = tail call noalias ptr @av_mallocz(i64 noundef 4096) #12
  %.not.i20 = icmp eq ptr %47, null
  br i1 %.not.i20, label %mpegts_open_section_filter.exit24, label %48

48:                                               ; preds = %mpegts_open_section_filter.exit19
  %49 = load ptr, ptr %6, align 8, !tbaa !57
  tail call void (ptr, i32, ptr, ...) @av_log(ptr noundef %49, i32 noundef 56, ptr noundef nonnull @.str.14, i32 noundef 18, i32 noundef 1) #12
  %50 = getelementptr inbounds nuw i8, ptr %2, i64 8472
  %51 = load ptr, ptr %50, align 8, !tbaa !46
  %.not.i.i21 = icmp eq ptr %51, null
  br i1 %.not.i.i21, label %52, label %54

52:                                               ; preds = %48
  %53 = tail call noalias ptr @av_mallocz(i64 noundef 88) #12
  %.not20.i.i23 = icmp eq ptr %53, null
  br i1 %.not20.i.i23, label %54, label %55

54:                                               ; preds = %52, %48
  tail call void @av_free(ptr noundef nonnull %47) #12
  br label %mpegts_open_section_filter.exit24

55:                                               ; preds = %52
  store ptr %53, ptr %50, align 8, !tbaa !46
  %56 = getelementptr inbounds nuw i8, ptr %53, i64 28
  store i32 1, ptr %56, align 4, !tbaa !62
  store i32 18, ptr %53, align 8, !tbaa !63
  %57 = getelementptr inbounds nuw i8, ptr %53, i64 4
  store i32 -1, ptr %57, align 4, !tbaa !48
  %58 = getelementptr inbounds nuw i8, ptr %53, i64 8
  store i32 -1, ptr %58, align 8, !tbaa !64
  %59 = getelementptr inbounds nuw i8, ptr %53, i64 16
  store i64 -1, ptr %59, align 8, !tbaa !65
  %60 = getelementptr inbounds nuw i8, ptr %53, i64 72
  store ptr @eit_cb, ptr %60, align 8, !tbaa !66
  %61 = getelementptr inbounds nuw i8, ptr %53, i64 80
  store ptr %2, ptr %61, align 8, !tbaa !68
  %62 = getelementptr inbounds nuw i8, ptr %53, i64 56
  store ptr %47, ptr %62, align 8, !tbaa !69
  %63 = getelementptr inbounds nuw i8, ptr %53, i64 64
  %64 = load i8, ptr %63, align 8
  %65 = or i8 %64, 1
  store i8 %65, ptr %63, align 8
  %66 = getelementptr inbounds nuw i8, ptr %53, i64 40
  store i32 -1, ptr %66, align 8, !tbaa !70
  br label %mpegts_open_section_filter.exit24

mpegts_open_section_filter.exit24:                ; preds = %55, %54, %mpegts_open_section_filter.exit19, %1
  ret ptr %2
}